target datalayout = "e-m:e-p270:32:32-p271:32:32-p272:64:64-i64:64-i128:128-f80:128-n8:16:32:64-S128"
target triple = "x86_64-pc-linux-gnu"

%struct.PLpgSQL_execstate = type { ptr, ptr, ptr, i64, i8, i32, i32, i8, i8, i8, i8, ptr, ptr, ptr, ptr, ptr, ptr, ptr, i32, i32, ptr, ptr, ptr, ptr, ptr, ptr, ptr, ptr, ptr, ptr, i64, ptr, ptr, ptr, ptr, ptr }
%struct.ExprContext = type { i32, ptr, ptr, ptr, ptr, ptr, ptr, ptr, ptr, ptr, i64, i8, i64, i8, ptr, ptr, ptr, ptr }
%struct.ParamListInfoData = type { ptr, ptr, ptr, ptr, ptr, ptr, ptr, i32, [0 x %struct.ParamExternData] }
%struct.ParamExternData = type { i64, i8, i16, i32 }
%struct.PLpgSQL_expr = type { ptr, i32, ptr, ptr, i32, i8, ptr, ptr, ptr, i32, i32, i8, i32, ptr, ptr, ptr, i32, ptr, i8, i32 }

@.str.2 = private unnamed_addr constant [11 x i8] c"plpgsql-18\00", align 1
@.str.4 = private unnamed_addr constant [10 x i8] c"pl_exec.c\00", align 1
@SPI_result = external global i32, align 4
@.str.34 = private unnamed_addr constant [10 x i8] c"query: %s\00", align 1
@.str.38 = private unnamed_addr constant [50 x i8] c"could not open implicit cursor for query \22%s\22: %s\00", align 1
@__func__.exec_run_select = private unnamed_addr constant [16 x i8] c"exec_run_select\00", align 1
@.str.39 = private unnamed_addr constant [52 x i8] c"query is SELECT INTO, but it should be plain SELECT\00", align 1
@.str.40 = private unnamed_addr constant [22 x i8] c"query is not a SELECT\00", align 1
@SPI_tuptable = external global ptr, align 8
@SPI_processed = external global i64, align 8

; Function Attrs: nounwind uwtable
define internal void @exec_eval_cleanup(ptr noundef %0) #0 {
  %2 = alloca ptr, align 8
  store ptr %0, ptr %2, align 8
  %3 = load ptr, ptr %2, align 8
  %4 = getelementptr inbounds nuw %struct.PLpgSQL_execstate, ptr %3, i32 0, i32 29
  %5 = load ptr, ptr %4, align 8
  %6 = icmp ne ptr %5, null
  br i1 %6, label %7, label %11

7:                                                ; preds = %1
  %8 = load ptr, ptr %2, align 8
  %9 = getelementptr inbounds nuw %struct.PLpgSQL_execstate, ptr %8, i32 0, i32 29
  %10 = load ptr, ptr %9, align 8
  call void @SPI_freetuptable(ptr noundef %10)
  br label %11

11:                                               ; preds = %7, %1
  %12 = load ptr, ptr %2, align 8
  %13 = getelementptr inbounds nuw %struct.PLpgSQL_execstate, ptr %12, i32 0, i32 29
  store ptr null, ptr %13, align 8
  %14 = load ptr, ptr %2, align 8
  %15 = getelementptr inbounds nuw %struct.PLpgSQL_execstate, ptr %14, i32 0, i32 31
  %16 = load ptr, ptr %15, align 8
  %17 = icmp ne ptr %16, null
  br i1 %17, label %18, label %24

18:                                               ; preds = %11
  %19 = load ptr, ptr %2, align 8
  %20 = getelementptr inbounds nuw %struct.PLpgSQL_execstate, ptr %19, i32 0, i32 31
  %21 = load ptr, ptr %20, align 8
  %22 = getelementptr inbounds nuw %struct.ExprContext, ptr %21, i32 0, i32 5
  %23 = load ptr, ptr %22, align 8
  call void @MemoryContextReset(ptr noundef %23)
  br label %24

24:                                               ; preds = %18, %11
  ret void
}

; Function Attrs: nounwind uwtable
define internal ptr @setup_param_list(ptr noundef %0, ptr noundef %1) #0 {
  %3 = alloca ptr, align 8
  %4 = alloca ptr, align 8
  %5 = alloca ptr, align 8
  store ptr %0, ptr %3, align 8
  store ptr %1, ptr %4, align 8
  call void @llvm.lifetime.start.p0(i64 8, ptr %5) #12
  %6 = load ptr, ptr %4, align 8
  %7 = getelementptr inbounds nuw %struct.PLpgSQL_expr, ptr %6, i32 0, i32 7
  %8 = load ptr, ptr %7, align 8
  %9 = icmp eq ptr %8, null
  br i1 %9, label %17, label %10

10:                                               ; preds = %2
  %11 = load ptr, ptr %3, align 8
  %12 = getelementptr inbounds nuw %struct.PLpgSQL_execstate, ptr %11, i32 0, i32 22
  %13 = load ptr, ptr %12, align 8
  store ptr %13, ptr %5, align 8
  %14 = load ptr, ptr %4, align 8
  %15 = load ptr, ptr %5, align 8
  %16 = getelementptr inbounds nuw %struct.ParamListInfoData, ptr %15, i32 0, i32 5
  store ptr %14, ptr %16, align 8
  br label %18

17:                                               ; preds = %2
  store ptr null, ptr %5, align 8
  br label %18

18:                                               ; preds = %17, %10
  %19 = load ptr, ptr %5, align 8
  call void @llvm.lifetime.end.p0(i64 8, ptr %5) #12
  ret ptr %19
}

; Function Attrs: nounwind uwtable
define internal i32 @exec_run_select(ptr noundef %0, ptr noundef %1, i64 noundef %2, ptr noundef %3) #0 {
  %5 = alloca i32, align 4
  %6 = alloca ptr, align 8
  %7 = alloca ptr, align 8
  %8 = alloca i64, align 8
  %9 = alloca ptr, align 8
  %10 = alloca ptr, align 8
  %11 = alloca i32, align 4
  %12 = alloca i32, align 4
  %13 = alloca i32, align 4
  store ptr %0, ptr %6, align 8
  store ptr %1, ptr %7, align 8
  store i64 %2, ptr %8, align 8
  store ptr %3, ptr %9, align 8
  call void @llvm.lifetime.start.p0(i64 8, ptr %10) #12
  call void @llvm.lifetime.start.p0(i64 4, ptr %11) #12
  %14 = load ptr, ptr %7, align 8
  %15 = getelementptr inbounds nuw %struct.PLpgSQL_expr, ptr %14, i32 0, i32 6
  %16 = load ptr, ptr %15, align 8
  %17 = icmp eq ptr %16, null
  br i1 %17, label %18, label %28

18:                                               ; preds = %4
  call void @llvm.lifetime.start.p0(i64 4, ptr %12) #12
  store i32 4, ptr %12, align 4
  %19 = load ptr, ptr %9, align 8
  %20 = icmp eq ptr %19, null
  br i1 %20, label %21, label %24

21:                                               ; preds = %18
  %22 = load i32, ptr %12, align 4
  %23 = or i32 %22, 2048
  store i32 %23, ptr %12, align 4
  br label %24

24:                                               ; preds = %21, %18
  %25 = load ptr, ptr %6, align 8
  %26 = load ptr, ptr %7, align 8
  %27 = load i32, ptr %12, align 4
  call void @exec_prepare_plan(ptr noundef %25, ptr noundef %26, i32 noundef %27)
  call void @llvm.lifetime.end.p0(i64 4, ptr %12) #12
  br label %28

28:                                               ; preds = %24, %4
  %29 = load ptr, ptr %6, align 8
  %30 = load ptr, ptr %7, align 8
  %31 = call ptr @setup_param_list(ptr noundef %29, ptr noundef %30)
  store ptr %31, ptr %10, align 8
  %32 = load ptr, ptr %9, align 8
  %33 = icmp ne ptr %32, null
  br i1 %33, label %34, label %66

34:                                               ; preds = %28
  %35 = load ptr, ptr %7, align 8
  %36 = getelementptr inbounds nuw %struct.PLpgSQL_expr, ptr %35, i32 0, i32 6
  %37 = load ptr, ptr %36, align 8
  %38 = load ptr, ptr %10, align 8
  %39 = load ptr, ptr %6, align 8
  %40 = getelementptr inbounds nuw %struct.PLpgSQL_execstate, ptr %39, i32 0, i32 9
  %41 = load i8, ptr %40, align 2, !range !3, !noundef !4
  %42 = trunc i8 %41 to i1
  %43 = call ptr @SPI_cursor_open_with_paramlist(ptr noundef null, ptr noundef %37, ptr noundef %38, i1 noundef zeroext %42)
  %44 = load ptr, ptr %9, align 8
  store ptr %43, ptr %44, align 8
  %45 = load ptr, ptr %9, align 8
  %46 = load ptr, ptr %45, align 8
  %47 = icmp eq ptr %46, null
  br i1 %47, label %48, label %64

48:                                               ; preds = %34
  br label %49

49:                                               ; preds = %48
  br i1 true, label %50, label %52

50:                                               ; preds = %49
  %51 = call zeroext i1 @errstart_cold(i32 noundef 21, ptr noundef @.str.2) #13
  br i1 %51, label %54, label %61

52:                                               ; preds = %49
  %53 = call zeroext i1 @errstart(i32 noundef 21, ptr noundef @.str.2)
  br i1 %53, label %54, label %61

54:                                               ; preds = %52, %50
  %55 = load ptr, ptr %7, align 8
  %56 = getelementptr inbounds nuw %struct.PLpgSQL_expr, ptr %55, i32 0, i32 0
  %57 = load ptr, ptr %56, align 8
  %58 = load i32, ptr @SPI_result, align 4
  %59 = call ptr @SPI_result_code_string(i32 noundef %58)
  %60 = call i32 (ptr, ...) @errmsg_internal(ptr noundef @.str.38, ptr noundef %57, ptr noundef %59)
  call void @errfinish(ptr noundef @.str.4, i32 noundef 5804, ptr noundef @__func__.exec_run_select)
  br label %61

61:                                               ; preds = %54, %52, %50
  unreachable

62:                                               ; No predecessors!
  br label %63

63:                                               ; preds = %62
  br label %64

64:                                               ; preds = %63, %34
  %65 = load ptr, ptr %6, align 8
  call void @exec_eval_cleanup(ptr noundef %65)
  store i32 10, ptr %5, align 4
  store i32 1, ptr %13, align 4
  br label %125

66:                                               ; preds = %28
  %67 = load ptr, ptr %7, align 8
  %68 = getelementptr inbounds nuw %struct.PLpgSQL_expr, ptr %67, i32 0, i32 6
  %69 = load ptr, ptr %68, align 8
  %70 = load ptr, ptr %10, align 8
  %71 = load ptr, ptr %6, align 8
  %72 = getelementptr inbounds nuw %struct.PLpgSQL_execstate, ptr %71, i32 0, i32 9
  %73 = load i8, ptr %72, align 2, !range !3, !noundef !4
  %74 = trunc i8 %73 to i1
  %75 = load i64, ptr %8, align 8
  %76 = call i32 @SPI_execute_plan_with_paramlist(ptr noundef %69, ptr noundef %70, i1 noundef zeroext %74, i64 noundef %75)
  store i32 %76, ptr %11, align 4
  %77 = load i32, ptr %11, align 4
  %78 = icmp ne i32 %77, 5
  br i1 %78, label %79, label %117

79:                                               ; preds = %66
  %80 = load i32, ptr %11, align 4
  %81 = icmp eq i32 %80, 6
  br i1 %81, label %82, label %99

82:                                               ; preds = %79
  br label %83

83:                                               ; preds = %82
  br i1 true, label %84, label %86

84:                                               ; preds = %83
  %85 = call zeroext i1 @errstart_cold(i32 noundef 21, ptr noundef @.str.2) #13
  br i1 %85, label %88, label %96

86:                                               ; preds = %83
  %87 = call zeroext i1 @errstart(i32 noundef 21, ptr noundef @.str.2)
  br i1 %87, label %88, label %96

88:                                               ; preds = %86, %84
  %89 = call i32 @errcode(i32 noundef 16801924)
  %90 = call i32 (ptr, ...) @errmsg(ptr noundef @.str.39)
  %91 = call i32 @set_errcontext_domain(ptr noundef @.str.2)
  %92 = load ptr, ptr %7, align 8
  %93 = getelementptr inbounds nuw %struct.PLpgSQL_expr, ptr %92, i32 0, i32 0
  %94 = load ptr, ptr %93, align 8
  %95 = call i32 (ptr, ...) @errcontext_msg(ptr noundef @.str.34, ptr noundef %94)
  call void @errfinish(ptr noundef @.str.4, i32 noundef 5824, ptr noundef @__func__.exec_run_select)
  br label %96

96:                                               ; preds = %88, %86, %84
  unreachable

97:                                               ; No predecessors!
  br label %98

98:                                               ; preds = %97
  br label %116

99:                                               ; preds = %79
  br label %100

100:                                              ; preds = %99
  br i1 true, label %101, label %103

101:                                              ; preds = %100
  %102 = call zeroext i1 @errstart_cold(i32 noundef 21, ptr noundef @.str.2) #13
  br i1 %102, label %105, label %113

103:                                              ; preds = %100
  %104 = call zeroext i1 @errstart(i32 noundef 21, ptr noundef @.str.2)
  br i1 %104, label %105, label %113

105:                                              ; preds = %103, %101
  %106 = call i32 @errcode(i32 noundef 16801924)
  %107 = call i32 (ptr, ...) @errmsg(ptr noundef @.str.40)
  %108 = call i32 @set_errcontext_domain(ptr noundef @.str.2)
  %109 = load ptr, ptr %7, align 8
  %110 = getelementptr inbounds nuw %struct.PLpgSQL_expr, ptr %109, i32 0, i32 0
  %111 = load ptr, ptr %110, align 8
  %112 = call i32 (ptr, ...) @errcontext_msg(ptr noundef @.str.34, ptr noundef %111)
  call void @errfinish(ptr noundef @.str.4, i32 noundef 5829, ptr noundef @__func__.exec_run_select)
  br label %113

113:                                              ; preds = %105, %103, %101
  unreachable

114:                                              ; No predecessors!
  br label %115

115:                                              ; preds = %114
  br label %116

116:                                              ; preds = %115, %98
  br label %117

117:                                              ; preds = %116, %66
  %118 = load ptr, ptr @SPI_tuptable, align 8
  %119 = load ptr, ptr %6, align 8
  %120 = getelementptr inbounds nuw %struct.PLpgSQL_execstate, ptr %119, i32 0, i32 29
  store ptr %118, ptr %120, align 8
  %121 = load i64, ptr @SPI_processed, align 8
  %122 = load ptr, ptr %6, align 8
  %123 = getelementptr inbounds nuw %struct.PLpgSQL_execstate, ptr %122, i32 0, i32 30
  store i64 %121, ptr %123, align 8
  %124 = load i32, ptr %11, align 4
  store i32 %124, ptr %5, align 4
  store i32 1, ptr %13, align 4
  br label %125

125:                                              ; preds = %117, %64
  call void @llvm.lifetime.end.p0(i64 4, ptr %11) #12
  call void @llvm.lifetime.end.p0(i64 8, ptr %10) #12
  %126 = load i32, ptr %5, align 4
  ret i32 %126
}