; Function Attrs: nounwind uwtable
define internal fastcc range(i32 5, 11) i32 @exec_run_select(ptr noundef captures(none) %0, ptr noundef %1, i64 noundef range(i64 0, 3) %2, ptr noundef writeonly captures(address_is_null) %3) unnamed_addr #0 {
  %5 = getelementptr inbounds nuw i8, ptr %1, i64 40
  %6 = load ptr, ptr %5, align 8
  %7 = icmp eq ptr %6, null
  br i1 %7, label %.sink.split, label %9

.sink.split:                                      ; preds = %4
  %8 = icmp eq ptr %3, null
  %. = select i1 %8, i32 2052, i32 4
  tail call fastcc void @exec_prepare_plan(ptr noundef %0, ptr noundef nonnull %1, i32 noundef %.)
  br label %9

9:                                                ; preds = %.sink.split, %4
  %10 = getelementptr inbounds nuw i8, ptr %1, i64 48
  %11 = load ptr, ptr %10, align 8
  %12 = icmp eq ptr %11, null
  br i1 %12, label %setup_param_list.exit, label %13

13:                                               ; preds = %9
  %14 = getelementptr inbounds nuw i8, ptr %0, i64 128
  %15 = load ptr, ptr %14, align 8
  %16 = getelementptr inbounds nuw i8, ptr %15, i64 40
  store ptr %1, ptr %16, align 8
  br label %setup_param_list.exit

setup_param_list.exit:                            ; preds = %9, %13
  %.0.i = phi ptr [ %15, %13 ], [ null, %9 ]
  %.not = icmp eq ptr %3, null
  %17 = load ptr, ptr %5, align 8
  %18 = getelementptr inbounds nuw i8, ptr %0, i64 46
  %19 = load i8, ptr %18, align 2, !range !3, !noundef !4
  %20 = trunc nuw i8 %19 to i1
  br i1 %.not, label %40, label %21

21:                                               ; preds = %setup_param_list.exit
  %22 = tail call ptr @SPI_cursor_open_with_paramlist(ptr noundef null, ptr noundef %17, ptr noundef %.0.i, i1 noundef zeroext %20) #12
  store ptr %22, ptr %3, align 8
  %23 = icmp eq ptr %22, null
  br i1 %23, label %24, label %30

24:                                               ; preds = %21
  %25 = tail call zeroext i1 @errstart_cold(i32 noundef 21, ptr noundef nonnull @.str.2) #13
  tail call void @llvm.assume(i1 %25)
  %26 = load ptr, ptr %1, align 8
  %27 = load i32, ptr @SPI_result, align 4
  %28 = tail call ptr @SPI_result_code_string(i32 noundef %27) #12
  %29 = tail call i32 (ptr, ...) @errmsg_internal(ptr noundef nonnull @.str.38, ptr noundef %26, ptr noundef %28) #12
  tail call void @errfinish(ptr noundef nonnull @.str.4, i32 noundef 5804, ptr noundef nonnull @__func__.exec_run_select) #12
  unreachable

30:                                               ; preds = %21
  %31 = getelementptr inbounds nuw i8, ptr %0, i64 184
  %32 = load ptr, ptr %31, align 8
  %.not.i = icmp eq ptr %32, null
  br i1 %.not.i, label %34, label %33

33:                                               ; preds = %30
  tail call void @SPI_freetuptable(ptr noundef nonnull %32) #12
  br label %34

34:                                               ; preds = %33, %30
  store ptr null, ptr %31, align 8
  %35 = getelementptr inbounds nuw i8, ptr %0, i64 200
  %36 = load ptr, ptr %35, align 8
  %.not6.i = icmp eq ptr %36, null
  br i1 %.not6.i, label %exec_eval_cleanup.exit, label %37

37:                                               ; preds = %34
  %38 = getelementptr inbounds nuw i8, ptr %36, i64 40
  %39 = load ptr, ptr %38, align 8
  tail call void @MemoryContextReset(ptr noundef %39) #12
  br label %exec_eval_cleanup.exit

40:                                               ; preds = %setup_param_list.exit
  %41 = tail call i32 @SPI_execute_plan_with_paramlist(ptr noundef %17, ptr noundef %.0.i, i1 noundef zeroext %20, i64 noundef %2) #12
  switch i32 %41, label %49 [
    i32 5, label %56
    i32 6, label %42
  ]

42:                                               ; preds = %40
  %43 = tail call zeroext i1 @errstart_cold(i32 noundef 21, ptr noundef nonnull @.str.2) #13
  tail call void @llvm.assume(i1 %43)
  %44 = tail call i32 @errcode(i32 noundef 16801924) #12
  %45 = tail call i32 (ptr, ...) @errmsg(ptr noundef nonnull @.str.39) #12
  %46 = tail call i32 @set_errcontext_domain(ptr noundef nonnull @.str.2) #12
  %47 = load ptr, ptr %1, align 8
  %48 = tail call i32 (ptr, ...) @errcontext_msg(ptr noundef nonnull @.str.34, ptr noundef %47) #12
  tail call void @errfinish(ptr noundef nonnull @.str.4, i32 noundef 5824, ptr noundef nonnull @__func__.exec_run_select) #12
  unreachable

49:                                               ; preds = %40
  %50 = tail call zeroext i1 @errstart_cold(i32 noundef 21, ptr noundef nonnull @.str.2) #13
  tail call void @llvm.assume(i1 %50)
  %51 = tail call i32 @errcode(i32 noundef 16801924) #12
  %52 = tail call i32 (ptr, ...) @errmsg(ptr noundef nonnull @.str.40) #12
  %53 = tail call i32 @set_errcontext_domain(ptr noundef nonnull @.str.2) #12
  %54 = load ptr, ptr %1, align 8
  %55 = tail call i32 (ptr, ...) @errcontext_msg(ptr noundef nonnull @.str.34, ptr noundef %54) #12
  tail call void @errfinish(ptr noundef nonnull @.str.4, i32 noundef 5829, ptr noundef nonnull @__func__.exec_run_select) #12
  unreachable

56:                                               ; preds = %40
  %57 = load ptr, ptr @SPI_tuptable, align 8
  %58 = getelementptr inbounds nuw i8, ptr %0, i64 184
  store ptr %57, ptr %58, align 8
  %59 = load i64, ptr @SPI_processed, align 8
  %60 = getelementptr inbounds nuw i8, ptr %0, i64 192
  store i64 %59, ptr %60, align 8
  br label %exec_eval_cleanup.exit

exec_eval_cleanup.exit:                           ; preds = %37, %34, %56
  %.027 = phi i32 [ 5, %56 ], [ 10, %34 ], [ 10, %37 ]
  ret i32 %.027
}